target datalayout = "e-m:e-p270:32:32-p271:32:32-p272:64:64-i64:64-i128:128-f80:128-n8:16:32:64-S128"
target triple = "x86_64-pc-linux-gnu"

%struct.block_q4_K = type { %union.anon.6, [12 x i8], [128 x i8] }
%union.anon.6 = type { i32 }
%struct.anon.7 = type { i16, i16 }

@ggml_table_f32_f16 = external global [65536 x float], align 16

; Function Attrs: inlinehint nounwind uwtable
define internal void @get_scale_min_k4(i32 noundef %0, ptr noalias noundef %1, ptr noalias noundef %2, ptr noalias noundef %3) #3 {
  %5 = alloca i32, align 4
  %6 = alloca ptr, align 8
  %7 = alloca ptr, align 8
  %8 = alloca ptr, align 8
  store i32 %0, ptr %5, align 4, !tbaa !11
  store ptr %1, ptr %6, align 8, !tbaa !61
  store ptr %2, ptr %7, align 8, !tbaa !61
  store ptr %3, ptr %8, align 8, !tbaa !61
  %9 = load i32, ptr %5, align 4, !tbaa !11
  %10 = icmp slt i32 %9, 4
  br i1 %10, label %11, label %31

11:                                               ; preds = %4
  %12 = load ptr, ptr %6, align 8, !tbaa !61
  %13 = load i32, ptr %5, align 4, !tbaa !11
  %14 = sext i32 %13 to i64
  %15 = getelementptr inbounds i8, ptr %12, i64 %14
  %16 = load i8, ptr %15, align 1, !tbaa !20
  %17 = zext i8 %16 to i32
  %18 = and i32 %17, 63
  %19 = trunc i32 %18 to i8
  %20 = load ptr, ptr %7, align 8, !tbaa !61
  store i8 %19, ptr %20, align 1, !tbaa !20
  %21 = load ptr, ptr %6, align 8, !tbaa !61
  %22 = load i32, ptr %5, align 4, !tbaa !11
  %23 = add nsw i32 %22, 4
  %24 = sext i32 %23 to i64
  %25 = getelementptr inbounds i8, ptr %21, i64 %24
  %26 = load i8, ptr %25, align 1, !tbaa !20
  %27 = zext i8 %26 to i32
  %28 = and i32 %27, 63
  %29 = trunc i32 %28 to i8
  %30 = load ptr, ptr %8, align 8, !tbaa !61
  store i8 %29, ptr %30, align 1, !tbaa !20
  br label %72

31:                                               ; preds = %4
  %32 = load ptr, ptr %6, align 8, !tbaa !61
  %33 = load i32, ptr %5, align 4, !tbaa !11
  %34 = add nsw i32 %33, 4
  %35 = sext i32 %34 to i64
  %36 = getelementptr inbounds i8, ptr %32, i64 %35
  %37 = load i8, ptr %36, align 1, !tbaa !20
  %38 = zext i8 %37 to i32
  %39 = and i32 %38, 15
  %40 = load ptr, ptr %6, align 8, !tbaa !61
  %41 = load i32, ptr %5, align 4, !tbaa !11
  %42 = sub nsw i32 %41, 4
  %43 = sext i32 %42 to i64
  %44 = getelementptr inbounds i8, ptr %40, i64 %43
  %45 = load i8, ptr %44, align 1, !tbaa !20
  %46 = zext i8 %45 to i32
  %47 = ashr i32 %46, 6
  %48 = shl i32 %47, 4
  %49 = or i32 %39, %48
  %50 = trunc i32 %49 to i8
  %51 = load ptr, ptr %7, align 8, !tbaa !61
  store i8 %50, ptr %51, align 1, !tbaa !20
  %52 = load ptr, ptr %6, align 8, !tbaa !61
  %53 = load i32, ptr %5, align 4, !tbaa !11
  %54 = add nsw i32 %53, 4
  %55 = sext i32 %54 to i64
  %56 = getelementptr inbounds i8, ptr %52, i64 %55
  %57 = load i8, ptr %56, align 1, !tbaa !20
  %58 = zext i8 %57 to i32
  %59 = ashr i32 %58, 4
  %60 = load ptr, ptr %6, align 8, !tbaa !61
  %61 = load i32, ptr %5, align 4, !tbaa !11
  %62 = sub nsw i32 %61, 0
  %63 = sext i32 %62 to i64
  %64 = getelementptr inbounds i8, ptr %60, i64 %63
  %65 = load i8, ptr %64, align 1, !tbaa !20
  %66 = zext i8 %65 to i32
  %67 = ashr i32 %66, 6
  %68 = shl i32 %67, 4
  %69 = or i32 %59, %68
  %70 = trunc i32 %69 to i8
  %71 = load ptr, ptr %8, align 8, !tbaa !61
  store i8 %70, ptr %71, align 1, !tbaa !20
  br label %72

72:                                               ; preds = %31, %11
  ret void
}

; Function Attrs: inlinehint nounwind uwtable
define internal float @ggml_lookup_fp16_to_fp32(i16 noundef zeroext %0) #3 {
  %2 = alloca i16, align 2
  %3 = alloca i16, align 2
  store i16 %0, ptr %2, align 2, !tbaa !42
  call void @llvm.lifetime.start.p0(i64 2, ptr %3) #10
  call void @llvm.memcpy.p0.p0.i64(ptr align 2 %3, ptr align 2 %2, i64 2, i1 false)
  %4 = load i16, ptr %3, align 2, !tbaa !42
  %5 = zext i16 %4 to i64
  %6 = getelementptr inbounds nuw [65536 x float], ptr @ggml_table_f32_f16, i64 0, i64 %5
  %7 = load float, ptr %6, align 4, !tbaa !13
  call void @llvm.lifetime.end.p0(i64 2, ptr %3) #10
  ret float %7
}

; Function Attrs: nounwind uwtable
define void @dequantize_row_q4_K(ptr noalias noundef %0, ptr noalias noundef %1, i64 noundef %2) #0 {
  %4 = alloca ptr, align 8
  %5 = alloca ptr, align 8
  %6 = alloca i64, align 8
  %7 = alloca i32, align 4
  %8 = alloca i32, align 4
  %9 = alloca i32, align 4
  %10 = alloca ptr, align 8
  %11 = alloca float, align 4
  %12 = alloca float, align 4
  %13 = alloca i32, align 4
  %14 = alloca i8, align 1
  %15 = alloca i8, align 1
  %16 = alloca i32, align 4
  %17 = alloca float, align 4
  %18 = alloca float, align 4
  %19 = alloca float, align 4
  %20 = alloca float, align 4
  %21 = alloca i32, align 4
  %22 = alloca i32, align 4
  store ptr %0, ptr %4, align 8, !tbaa !8
  store ptr %1, ptr %5, align 8, !tbaa !3
  store i64 %2, ptr %6, align 8, !tbaa !9
  call void @llvm.lifetime.start.p0(i64 4, ptr %7) #10
  %23 = load i64, ptr %6, align 8, !tbaa !9
  %24 = sdiv i64 %23, 256
  %25 = trunc i64 %24 to i32
  store i32 %25, ptr %7, align 4, !tbaa !11
  call void @llvm.lifetime.start.p0(i64 4, ptr %8) #10
  store i32 0, ptr %8, align 4, !tbaa !11
  br label %26

26:                                               ; preds = %149, %3
  %27 = load i32, ptr %8, align 4, !tbaa !11
  %28 = load i32, ptr %7, align 4, !tbaa !11
  %29 = icmp slt i32 %27, %28
  br i1 %29, label %31, label %30

30:                                               ; preds = %26
  store i32 2, ptr %9, align 4
  call void @llvm.lifetime.end.p0(i64 4, ptr %8) #10
  br label %152

31:                                               ; preds = %26
  call void @llvm.lifetime.start.p0(i64 8, ptr %10) #10
  %32 = load ptr, ptr %4, align 8, !tbaa !8
  %33 = load i32, ptr %8, align 4, !tbaa !11
  %34 = sext i32 %33 to i64
  %35 = getelementptr inbounds %struct.block_q4_K, ptr %32, i64 %34
  %36 = getelementptr inbounds nuw %struct.block_q4_K, ptr %35, i32 0, i32 2
  %37 = getelementptr inbounds [128 x i8], ptr %36, i64 0, i64 0
  store ptr %37, ptr %10, align 8, !tbaa !61
  call void @llvm.lifetime.start.p0(i64 4, ptr %11) #10
  %38 = load ptr, ptr %4, align 8, !tbaa !8
  %39 = load i32, ptr %8, align 4, !tbaa !11
  %40 = sext i32 %39 to i64
  %41 = getelementptr inbounds %struct.block_q4_K, ptr %38, i64 %40
  %42 = getelementptr inbounds nuw %struct.block_q4_K, ptr %41, i32 0, i32 0
  %43 = getelementptr inbounds nuw %struct.anon.7, ptr %42, i32 0, i32 0
  %44 = load i16, ptr %43, align 4, !tbaa !20
  %45 = call float @ggml_lookup_fp16_to_fp32(i16 noundef zeroext %44)
  store float %45, ptr %11, align 4, !tbaa !13
  call void @llvm.lifetime.start.p0(i64 4, ptr %12) #10
  %46 = load ptr, ptr %4, align 8, !tbaa !8
  %47 = load i32, ptr %8, align 4, !tbaa !11
  %48 = sext i32 %47 to i64
  %49 = getelementptr inbounds %struct.block_q4_K, ptr %46, i64 %48
  %50 = getelementptr inbounds nuw %struct.block_q4_K, ptr %49, i32 0, i32 0
  %51 = getelementptr inbounds nuw %struct.anon.7, ptr %50, i32 0, i32 1
  %52 = load i16, ptr %51, align 2, !tbaa !20
  %53 = call float @ggml_lookup_fp16_to_fp32(i16 noundef zeroext %52)
  store float %53, ptr %12, align 4, !tbaa !13
  call void @llvm.lifetime.start.p0(i64 4, ptr %13) #10
  store i32 0, ptr %13, align 4, !tbaa !11
  call void @llvm.lifetime.start.p0(i64 1, ptr %14) #10
  call void @llvm.lifetime.start.p0(i64 1, ptr %15) #10
  call void @llvm.lifetime.start.p0(i64 4, ptr %16) #10
  store i32 0, ptr %16, align 4, !tbaa !11
  br label %54

54:                                               ; preds = %145, %31
  %55 = load i32, ptr %16, align 4, !tbaa !11
  %56 = icmp slt i32 %55, 256
  br i1 %56, label %58, label %57

57:                                               ; preds = %54
  store i32 5, ptr %9, align 4
  call void @llvm.lifetime.end.p0(i64 4, ptr %16) #10
  br label %148

58:                                               ; preds = %54
  %59 = load i32, ptr %13, align 4, !tbaa !11
  %60 = add nsw i32 %59, 0
  %61 = load ptr, ptr %4, align 8, !tbaa !8
  %62 = load i32, ptr %8, align 4, !tbaa !11
  %63 = sext i32 %62 to i64
  %64 = getelementptr inbounds %struct.block_q4_K, ptr %61, i64 %63
  %65 = getelementptr inbounds nuw %struct.block_q4_K, ptr %64, i32 0, i32 1
  %66 = getelementptr inbounds [12 x i8], ptr %65, i64 0, i64 0
  call void @get_scale_min_k4(i32 noundef %60, ptr noundef %66, ptr noundef %14, ptr noundef %15)
  call void @llvm.lifetime.start.p0(i64 4, ptr %17) #10
  %67 = load float, ptr %11, align 4, !tbaa !13
  %68 = load i8, ptr %14, align 1, !tbaa !20
  %69 = zext i8 %68 to i32
  %70 = sitofp i32 %69 to float
  %71 = fmul float %67, %70
  store float %71, ptr %17, align 4, !tbaa !13
  call void @llvm.lifetime.start.p0(i64 4, ptr %18) #10
  %72 = load float, ptr %12, align 4, !tbaa !13
  %73 = load i8, ptr %15, align 1, !tbaa !20
  %74 = zext i8 %73 to i32
  %75 = sitofp i32 %74 to float
  %76 = fmul float %72, %75
  store float %76, ptr %18, align 4, !tbaa !13
  %77 = load i32, ptr %13, align 4, !tbaa !11
  %78 = add nsw i32 %77, 1
  %79 = load ptr, ptr %4, align 8, !tbaa !8
  %80 = load i32, ptr %8, align 4, !tbaa !11
  %81 = sext i32 %80 to i64
  %82 = getelementptr inbounds %struct.block_q4_K, ptr %79, i64 %81
  %83 = getelementptr inbounds nuw %struct.block_q4_K, ptr %82, i32 0, i32 1
  %84 = getelementptr inbounds [12 x i8], ptr %83, i64 0, i64 0
  call void @get_scale_min_k4(i32 noundef %78, ptr noundef %84, ptr noundef %14, ptr noundef %15)
  call void @llvm.lifetime.start.p0(i64 4, ptr %19) #10
  %85 = load float, ptr %11, align 4, !tbaa !13
  %86 = load i8, ptr %14, align 1, !tbaa !20
  %87 = zext i8 %86 to i32
  %88 = sitofp i32 %87 to float
  %89 = fmul float %85, %88
  store float %89, ptr %19, align 4, !tbaa !13
  call void @llvm.lifetime.start.p0(i64 4, ptr %20) #10
  %90 = load float, ptr %12, align 4, !tbaa !13
  %91 = load i8, ptr %15, align 1, !tbaa !20
  %92 = zext i8 %91 to i32
  %93 = sitofp i32 %92 to float
  %94 = fmul float %90, %93
  store float %94, ptr %20, align 4, !tbaa !13
  call void @llvm.lifetime.start.p0(i64 4, ptr %21) #10
  store i32 0, ptr %21, align 4, !tbaa !11
  br label %95

95:                                               ; preds = %114, %58
  %96 = load i32, ptr %21, align 4, !tbaa !11
  %97 = icmp slt i32 %96, 32
  br i1 %97, label %99, label %98

98:                                               ; preds = %95
  store i32 8, ptr %9, align 4
  call void @llvm.lifetime.end.p0(i64 4, ptr %21) #10
  br label %117

99:                                               ; preds = %95
  %100 = load float, ptr %17, align 4, !tbaa !13
  %101 = load ptr, ptr %10, align 8, !tbaa !61
  %102 = load i32, ptr %21, align 4, !tbaa !11
  %103 = sext i32 %102 to i64
  %104 = getelementptr inbounds i8, ptr %101, i64 %103
  %105 = load i8, ptr %104, align 1, !tbaa !20
  %106 = zext i8 %105 to i32
  %107 = and i32 %106, 15
  %108 = sitofp i32 %107 to float
  %109 = load float, ptr %18, align 4, !tbaa !13
  %110 = fneg float %109
  %111 = call float @llvm.fmuladd.f32(float %100, float %108, float %110)
  %112 = load ptr, ptr %5, align 8, !tbaa !3
  %113 = getelementptr inbounds nuw float, ptr %112, i32 1
  store ptr %113, ptr %5, align 8, !tbaa !3
  store float %111, ptr %112, align 4, !tbaa !13
  br label %114

114:                                              ; preds = %99
  %115 = load i32, ptr %21, align 4, !tbaa !11
  %116 = add nsw i32 %115, 1
  store i32 %116, ptr %21, align 4, !tbaa !11
  br label %95, !llvm.loop !134

117:                                              ; preds = %98
  call void @llvm.lifetime.start.p0(i64 4, ptr %22) #10
  store i32 0, ptr %22, align 4, !tbaa !11
  br label %118

118:                                              ; preds = %137, %117
  %119 = load i32, ptr %22, align 4, !tbaa !11
  %120 = icmp slt i32 %119, 32
  br i1 %120, label %122, label %121

121:                                              ; preds = %118
  store i32 11, ptr %9, align 4
  call void @llvm.lifetime.end.p0(i64 4, ptr %22) #10
  br label %140

122:                                              ; preds = %118
  %123 = load float, ptr %19, align 4, !tbaa !13
  %124 = load ptr, ptr %10, align 8, !tbaa !61
  %125 = load i32, ptr %22, align 4, !tbaa !11
  %126 = sext i32 %125 to i64
  %127 = getelementptr inbounds i8, ptr %124, i64 %126
  %128 = load i8, ptr %127, align 1, !tbaa !20
  %129 = zext i8 %128 to i32
  %130 = ashr i32 %129, 4
  %131 = sitofp i32 %130 to float
  %132 = load float, ptr %20, align 4, !tbaa !13
  %133 = fneg float %132
  %134 = call float @llvm.fmuladd.f32(float %123, float %131, float %133)
  %135 = load ptr, ptr %5, align 8, !tbaa !3
  %136 = getelementptr inbounds nuw float, ptr %135, i32 1
  store ptr %136, ptr %5, align 8, !tbaa !3
  store float %134, ptr %135, align 4, !tbaa !13
  br label %137

137:                                              ; preds = %122
  %138 = load i32, ptr %22, align 4, !tbaa !11
  %139 = add nsw i32 %138, 1
  store i32 %139, ptr %22, align 4, !tbaa !11
  br label %118, !llvm.loop !135

140:                                              ; preds = %121
  %141 = load ptr, ptr %10, align 8, !tbaa !61
  %142 = getelementptr inbounds i8, ptr %141, i64 32
  store ptr %142, ptr %10, align 8, !tbaa !61
  %143 = load i32, ptr %13, align 4, !tbaa !11
  %144 = add nsw i32 %143, 2
  store i32 %144, ptr %13, align 4, !tbaa !11
  call void @llvm.lifetime.end.p0(i64 4, ptr %20) #10
  call void @llvm.lifetime.end.p0(i64 4, ptr %19) #10
  call void @llvm.lifetime.end.p0(i64 4, ptr %18) #10
  call void @llvm.lifetime.end.p0(i64 4, ptr %17) #10
  br label %145

145:                                              ; preds = %140
  %146 = load i32, ptr %16, align 4, !tbaa !11
  %147 = add nsw i32 %146, 64
  store i32 %147, ptr %16, align 4, !tbaa !11
  br label %54, !llvm.loop !136

148:                                              ; preds = %57
  call void @llvm.lifetime.end.p0(i64 1, ptr %15) #10
  call void @llvm.lifetime.end.p0(i64 1, ptr %14) #10
  call void @llvm.lifetime.end.p0(i64 4, ptr %13) #10
  call void @llvm.lifetime.end.p0(i64 4, ptr %12) #10
  call void @llvm.lifetime.end.p0(i64 4, ptr %11) #10
  call void @llvm.lifetime.end.p0(i64 8, ptr %10) #10
  br label %149

149:                                              ; preds = %148
  %150 = load i32, ptr %8, align 4, !tbaa !11
  %151 = add nsw i32 %150, 1
  store i32 %151, ptr %8, align 4, !tbaa !11
  br label %26, !llvm.loop !137

152:                                              ; preds = %30
  call void @llvm.lifetime.end.p0(i64 4, ptr %7) #10
  ret void
}