; Function Attrs: nofree norecurse nosync nounwind memory(read, argmem: readwrite, inaccessiblemem: none) uwtable
define void @dequantize_row_q4_K(ptr noalias noundef readonly captures(none) %0, ptr noalias noundef writeonly captures(none) %1, i64 noundef %2) local_unnamed_addr #4 {
  %4 = sdiv i64 %2, 256
  %5 = trunc i64 %4 to i32
  %6 = icmp sgt i32 %5, 0
  br i1 %6, label %.lr.ph.preheader, label %._crit_edge

.lr.ph.preheader:                                 ; preds = %3
  %wide.trip.count = and i64 %4, 2147483647
  br label %.lr.ph

._crit_edge:                                      ; preds = %19, %3
  ret void

.lr.ph:                                           ; preds = %.lr.ph.preheader, %19
  %indvars.iv68 = phi i64 [ 0, %.lr.ph.preheader ], [ %indvars.iv.next69, %19 ]
  %.03858 = phi ptr [ %1, %.lr.ph.preheader ], [ %91, %19 ]
  %7 = getelementptr inbounds nuw %struct.block_q4_K, ptr %0, i64 %indvars.iv68
  %8 = getelementptr inbounds nuw i8, ptr %7, i64 16
  %9 = load i16, ptr %7, align 4, !tbaa !13
  %10 = zext i16 %9 to i64
  %11 = getelementptr inbounds nuw [65536 x float], ptr @ggml_table_f32_f16, i64 0, i64 %10
  %12 = load float, ptr %11, align 4, !tbaa !8
  %13 = getelementptr inbounds nuw i8, ptr %7, i64 2
  %14 = load i16, ptr %13, align 2, !tbaa !13
  %15 = zext i16 %14 to i64
  %16 = getelementptr inbounds nuw [65536 x float], ptr @ggml_table_f32_f16, i64 0, i64 %15
  %17 = load float, ptr %16, align 4, !tbaa !8
  %18 = getelementptr inbounds nuw i8, ptr %7, i64 4
  br label %20

19:                                               ; preds = %81
  %indvars.iv.next69 = add nuw nsw i64 %indvars.iv68, 1
  %exitcond71.not = icmp eq i64 %indvars.iv.next69, %wide.trip.count
  br i1 %exitcond71.not, label %._crit_edge, label %.lr.ph, !llvm.loop !258

20:                                               ; preds = %.lr.ph, %81
  %indvars.iv65 = phi i64 [ 0, %.lr.ph ], [ %indvars.iv.next66, %81 ]
  %.156 = phi ptr [ %.03858, %.lr.ph ], [ %91, %81 ]
  %.04055 = phi ptr [ %8, %.lr.ph ], [ %82, %81 ]
  %.04154 = phi i32 [ 0, %.lr.ph ], [ %83, %81 ]
  %21 = icmp samesign ult i64 %indvars.iv65, 4
  %22 = getelementptr inbounds nuw i8, ptr %18, i64 %indvars.iv65
  br i1 %21, label %23, label %36

23:                                               ; preds = %20
  %24 = load i8, ptr %22, align 1, !tbaa !13, !alias.scope !259, !noalias !262
  %25 = and i8 %24, 63
  %26 = getelementptr i8, ptr %22, i64 4
  %27 = load i8, ptr %26, align 1, !tbaa !13, !alias.scope !259, !noalias !262
  %28 = and i8 %27, 63
  %29 = or disjoint i64 %indvars.iv65, 1
  %30 = getelementptr inbounds nuw i8, ptr %18, i64 %29
  %31 = load i8, ptr %30, align 1, !tbaa !13, !alias.scope !265, !noalias !268
  %32 = and i8 %31, 63
  %33 = getelementptr i8, ptr %30, i64 4
  %34 = load i8, ptr %33, align 1, !tbaa !13, !alias.scope !265, !noalias !268
  %35 = and i8 %34, 63
  br label %get_scale_min_k4.exit45

36:                                               ; preds = %20
  %37 = getelementptr inbounds nuw i8, ptr %22, i64 4
  %38 = load i8, ptr %37, align 1, !tbaa !13, !alias.scope !259, !noalias !262
  %39 = and i8 %38, 15
  %40 = getelementptr i8, ptr %22, i64 -4
  %41 = load i8, ptr %40, align 1, !tbaa !13, !alias.scope !259, !noalias !262
  %42 = lshr i8 %41, 2
  %43 = and i8 %42, 48
  %44 = or disjoint i8 %43, %39
  %45 = lshr i8 %38, 4
  %46 = load i8, ptr %22, align 1, !tbaa !13, !alias.scope !259, !noalias !262
  %47 = lshr i8 %46, 2
  %48 = and i8 %47, 48
  %49 = or disjoint i8 %48, %45
  %50 = or disjoint i64 %indvars.iv65, 1
  %51 = getelementptr inbounds nuw i8, ptr %18, i64 %50
  %52 = getelementptr inbounds nuw i8, ptr %51, i64 4
  %53 = load i8, ptr %52, align 1, !tbaa !13, !alias.scope !265, !noalias !268
  %54 = and i8 %53, 15
  %55 = getelementptr i8, ptr %51, i64 -4
  %56 = load i8, ptr %55, align 1, !tbaa !13, !alias.scope !265, !noalias !268
  %57 = lshr i8 %56, 2
  %58 = and i8 %57, 48
  %59 = or disjoint i8 %58, %54
  %60 = lshr i8 %53, 4
  %61 = load i8, ptr %51, align 1, !tbaa !13, !alias.scope !265, !noalias !268
  %62 = lshr i8 %61, 2
  %63 = and i8 %62, 48
  %64 = or disjoint i8 %63, %60
  br label %get_scale_min_k4.exit45

get_scale_min_k4.exit45:                          ; preds = %23, %36
  %.in = phi i8 [ %28, %23 ], [ %49, %36 ]
  %.pn.in = phi i8 [ %25, %23 ], [ %44, %36 ]
  %.sink.i43 = phi i8 [ %32, %23 ], [ %59, %36 ]
  %storemerge.i44 = phi i8 [ %35, %23 ], [ %64, %36 ]
  %.pn = uitofp i8 %.pn.in to float
  %65 = fmul float %12, %.pn
  %66 = uitofp i8 %.in to float
  %67 = uitofp nneg i8 %.sink.i43 to float
  %68 = fmul float %12, %67
  %69 = fneg float %66
  %70 = fmul float %17, %69
  br label %74

.preheader:                                       ; preds = %74
  %71 = uitofp nneg i8 %storemerge.i44 to float
  %72 = fneg float %71
  %73 = fmul float %17, %72
  br label %85

74:                                               ; preds = %get_scale_min_k4.exit45, %74
  %indvars.iv = phi i64 [ 0, %get_scale_min_k4.exit45 ], [ %indvars.iv.next, %74 ]
  %.249 = phi ptr [ %.156, %get_scale_min_k4.exit45 ], [ %80, %74 ]
  %75 = getelementptr inbounds nuw i8, ptr %.04055, i64 %indvars.iv
  %76 = load i8, ptr %75, align 1, !tbaa !13
  %77 = and i8 %76, 15
  %78 = uitofp nneg i8 %77 to float
  %79 = tail call float @llvm.fmuladd.f32(float %65, float %78, float %70)
  %80 = getelementptr inbounds nuw i8, ptr %.249, i64 4
  store float %79, ptr %.249, align 4, !tbaa !8
  %indvars.iv.next = add nuw nsw i64 %indvars.iv, 1
  %exitcond.not = icmp eq i64 %indvars.iv.next, 32
  br i1 %exitcond.not, label %.preheader, label %74, !llvm.loop !271

81:                                               ; preds = %85
  %82 = getelementptr inbounds nuw i8, ptr %.04055, i64 32
  %indvars.iv.next66 = add nuw nsw i64 %indvars.iv65, 2
  %83 = add nuw nsw i32 %.04154, 64
  %84 = icmp samesign ult i32 %.04154, 192
  br i1 %84, label %20, label %19, !llvm.loop !272

85:                                               ; preds = %.preheader, %85
  %indvars.iv61 = phi i64 [ 0, %.preheader ], [ %indvars.iv.next62, %85 ]
  %.351 = phi ptr [ %80, %.preheader ], [ %91, %85 ]
  %86 = getelementptr inbounds nuw i8, ptr %.04055, i64 %indvars.iv61
  %87 = load i8, ptr %86, align 1, !tbaa !13
  %88 = lshr i8 %87, 4
  %89 = uitofp nneg i8 %88 to float
  %90 = tail call float @llvm.fmuladd.f32(float %68, float %89, float %73)
  %91 = getelementptr inbounds nuw i8, ptr %.351, i64 4
  store float %90, ptr %.351, align 4, !tbaa !8
  %indvars.iv.next62 = add nuw nsw i64 %indvars.iv61, 1
  %exitcond64.not = icmp eq i64 %indvars.iv.next62, 32
  br i1 %exitcond64.not, label %81, label %85, !llvm.loop !273
}